; Function Attrs: mustprogress nounwind uwtable
define internal noundef zeroext i1 @_ZN12_GLOBAL__N_123AlwaysInlinerLegacyPass11runOnModuleERN4llvm6ModuleE(ptr noundef nonnull align 8 dereferenceable(29) %0, ptr noundef nonnull align 8 dereferenceable(857) %1) unnamed_addr #0 align 2 {
  %3 = alloca %class.anon.152, align 8
  %4 = alloca %class.anon.153, align 8
  %5 = getelementptr inbounds nuw i8, ptr %0, i64 8
  %6 = load ptr, ptr %5, align 8
  %7 = load ptr, ptr %6, align 8
  %8 = getelementptr inbounds nuw i8, ptr %6, i64 8
  %9 = load ptr, ptr %8, align 8
  %.not11.i.i.i = icmp ne ptr %7, %9
  tail call void @llvm.assume(i1 %.not11.i.i.i)
  %10 = load ptr, ptr %7, align 8
  %11 = icmp eq ptr %10, @_ZN4llvm29ProfileSummaryInfoWrapperPass2IDE
  br i1 %11, label %_ZNK4llvm4Pass11getAnalysisINS_29ProfileSummaryInfoWrapperPassEEERT_v.exit, label %.lr.ph.i.i.i

.lr.ph.i.i.i:                                     ; preds = %2, %.lr.ph.i.i.i
  %.sroa.07.012.i4.i.i = phi ptr [ %12, %.lr.ph.i.i.i ], [ %7, %2 ]
  %12 = getelementptr inbounds i8, ptr %.sroa.07.012.i4.i.i, i64 16
  %.not.i.i.i = icmp ne ptr %12, %9
  tail call void @llvm.assume(i1 %.not.i.i.i)
  %13 = load ptr, ptr %12, align 8
  %14 = icmp eq ptr %13, @_ZN4llvm29ProfileSummaryInfoWrapperPass2IDE
  br i1 %14, label %_ZNK4llvm4Pass11getAnalysisINS_29ProfileSummaryInfoWrapperPassEEERT_v.exit, label %.lr.ph.i.i.i

_ZNK4llvm4Pass11getAnalysisINS_29ProfileSummaryInfoWrapperPassEEERT_v.exit: ; preds = %.lr.ph.i.i.i, %2
  %.sroa.07.012.i.lcssa.i.i = phi ptr [ %7, %2 ], [ %12, %.lr.ph.i.i.i ]
  %15 = getelementptr inbounds nuw i8, ptr %.sroa.07.012.i.lcssa.i.i, i64 8
  %16 = load ptr, ptr %15, align 8
  %17 = load ptr, ptr %16, align 8
  %18 = getelementptr inbounds i8, ptr %17, i64 96
  %19 = load ptr, ptr %18, align 8
  %20 = tail call noundef nonnull align 8 dereferenceable(40) ptr %19(ptr noundef nonnull align 8 dereferenceable(28) %16, ptr noundef nonnull @_ZN4llvm29ProfileSummaryInfoWrapperPass2IDE) #15
  %21 = getelementptr inbounds nuw i8, ptr %20, i64 32
  %22 = load ptr, ptr %21, align 8
  store ptr %0, ptr %3, align 8
  store ptr %0, ptr %4, align 8
  %23 = getelementptr inbounds nuw i8, ptr %0, i64 28
  %24 = load i8, ptr %23, align 4
  %25 = trunc i8 %24 to i1
  %26 = ptrtoint ptr %4 to i64
  %27 = ptrtoint ptr %3 to i64
  %28 = call fastcc noundef zeroext i1 @_ZN12_GLOBAL__N_116AlwaysInlineImplERN4llvm6ModuleEbRNS0_18ProfileSummaryInfoENS0_12function_refIFRNS0_15AssumptionCacheERNS0_8FunctionEEEENS5_IFRNS0_9AAResultsES9_EEENS5_IFRNS0_18BlockFrequencyInfoES9_EEE(ptr noundef nonnull align 8 dereferenceable(857) %1, i1 noundef zeroext %25, ptr noundef nonnull align 8 dereferenceable(80) %22, ptr nonnull @_ZN4llvm12function_refIFRNS_15AssumptionCacheERNS_8FunctionEEE11callback_fnIZN12_GLOBAL__N_123AlwaysInlinerLegacyPass11runOnModuleERNS_6ModuleEEUlS4_E0_EES2_lS4_, i64 %26, ptr nonnull @_ZN4llvm12function_refIFRNS_9AAResultsERNS_8FunctionEEE11callback_fnIZN12_GLOBAL__N_123AlwaysInlinerLegacyPass11runOnModuleERNS_6ModuleEEUlS4_E_EES2_lS4_, i64 %27, ptr null, i64 undef)
  ret i1 %28
}